; ModuleID = '34/2877.c'
source_filename = "34/2877.c"
target datalayout = "e-m:e-p270:32:32-p271:32:32-p272:64:64-i64:64-f80:128-n8:16:32:64-S128"
target triple = "x86_64-pc-linux-gnu"

@.str = private unnamed_addr constant [3 x i8] c"%d\00", align 1
@.str.1 = private unnamed_addr constant [9 x i8] c"%d/2=%d\0A\00", align 1
@.str.2 = private unnamed_addr constant [11 x i8] c"%d*3+1=%d\0A\00", align 1
@.str.3 = private unnamed_addr constant [4 x i8] c"End\00", align 1

; Function Attrs: noinline nounwind uwtable
define dso_local i32 @main() #0 {
  %1 = alloca i32, align 4
  %2 = alloca i32, align 4
  %3 = alloca i32, align 4
  store i32 0, i32* %1, align 4
  %4 = call i32 (i8*, ...) @__isoc99_scanf(i8* getelementptr inbounds ([3 x i8], [3 x i8]* @.str, i64 0, i64 0), i32* %2)
  %5 = load i32, i32* %2, align 4
  %6 = icmp ne i32 %5, 1
  br i1 %6, label %7, label %37

7:                                                ; preds = %0
  br label %8

8:                                                ; preds = %35, %7
  %9 = load i32, i32* %2, align 4
  %10 = srem i32 %9, 2
  %11 = icmp eq i32 %10, 0
  br i1 %11, label %12, label %23

12:                                               ; preds = %8
  %13 = load i32, i32* %2, align 4
  %14 = sdiv i32 %13, 2
  store i32 %14, i32* %3, align 4
  %15 = load i32, i32* %2, align 4
  %16 = load i32, i32* %3, align 4
  %17 = call i32 (i8*, ...) @printf(i8* getelementptr inbounds ([9 x i8], [9 x i8]* @.str.1, i64 0, i64 0), i32 %15, i32 %16)
  %18 = load i32, i32* %3, align 4
  store i32 %18, i32* %2, align 4
  %19 = load i32, i32* %2, align 4
  %20 = icmp eq i32 %19, 1
  br i1 %20, label %21, label %22

21:                                               ; preds = %12
  br label %36

22:                                               ; preds = %12
  br label %35

23:                                               ; preds = %8
  %24 = load i32, i32* %2, align 4
  %25 = mul nsw i32 %24, 3
  %26 = add nsw i32 %25, 1
  store i32 %26, i32* %3, align 4
  %27 = load i32, i32* %2, align 4
  %28 = load i32, i32* %3, align 4
  %29 = call i32 (i8*, ...) @printf(i8* getelementptr inbounds ([11 x i8], [11 x i8]* @.str.2, i64 0, i64 0), i32 %27, i32 %28)
  %30 = load i32, i32* %3, align 4
  store i32 %30, i32* %2, align 4
  %31 = load i32, i32* %2, align 4
  %32 = icmp eq i32 %31, 1
  br i1 %32, label %33, label %34

33:                                               ; preds = %23
  br label %36

34:                                               ; preds = %23
  br label %35

35:                                               ; preds = %34, %22
  br label %8

36:                                               ; preds = %33, %21
  br label %37

37:                                               ; preds = %36, %0
  %38 = call i32 (i8*, ...) @printf(i8* getelementptr inbounds ([4 x i8], [4 x i8]* @.str.3, i64 0, i64 0))
  ret i32 0
}

declare dso_local i32 @__isoc99_scanf(i8*, ...) #1

declare dso_local i32 @printf(i8*, ...) #1


!llvm.module.flags = !{!0}
!llvm.ident = !{!1}

!0 = !{i32 1, !"wchar_size", i32 4}
!1 = !{!"clang version 10.0.0-4ubuntu1 "}
